target datalayout = "e-m:e-p270:32:32-p271:32:32-p272:64:64-i64:64-i128:128-f80:128-n8:16:32:64-S128"
target triple = "x86_64-pc-linux-gnu"

%"class.sat::literal" = type { i32 }
%"class.sat::asymm_branch" = type { ptr, %class.params_ref, i64, %class.random_gen, i32, i32, i8, i32, i32, i8, i8, i64, i32, i32, i32, %class.svector, %class.svector, %class.svector.0, %class.svector.0, %class.svector, %class.svector }
%class.params_ref = type { ptr }
%class.random_gen = type { i32 }
%class.svector.0 = type { %class.vector.1 }
%class.vector.1 = type { ptr }
%class.svector = type { %class.vector }
%class.vector = type { ptr }
%"class.sat::solver" = type { %"class.sat::solver_core", i8, [7 x i8], %"struct.sat::config", %"struct.sat::stats", %class.scoped_ptr, %class.scoped_ptr.2, ptr, %"class.sat::drat", [2 x %"class.sat::clause_allocator"], i8, %class.random_gen, %"class.sat::cleaner", %class.svector.15, %"class.sat::model_converter", i8, %"class.sat::simplifier", %"class.sat::scc", %"class.sat::asymm_branch", %"class.sat::probing", i8, [7 x i8], %"class.sat::mus", i8, i8, [6 x i8], %"class.sat::justification", %"class.sat::literal", %class.ptr_vector.24, %class.ptr_vector.24, i32, %class.svector.8, %class.svector.8, %class.svector.8, %class.svector.8, %class.vector.38, %class.svector.15, %class.svector.39, %class.svector.18, %class.svector.18, %class.svector.18, %class.svector.18, %class.svector.18, %class.svector.8, %class.svector.8, i32, %class.svector, %class.svector.8, i32, %class.svector.41, %class.svector.41, %class.svector.41, %class.svector.41, %class.svector.41, i32, double, %class.svector.18, %class.svector.18, %class.svector.18, i8, %class.svector.28, i32, i32, i32, i32, i32, i32, %"struct.sat::backoff", i32, i32, %"struct.sat::backoff", %"struct.sat::backoff", %class.var_queue, i32, i32, i32, %class.ema, %class.ema, %class.ema, %class.ema, %class.ema, %class.svector, %class.svector.30, %"class.std::__cxx11::basic_string", i8, i8, %class.visit_helper, %class.svector.43, %class.scoped_limit_trail, %class.stopwatch, %class.params_ref, %"struct.sat::no_drat_params", %class.scoped_ptr.45, %class.svector, %"class.sat::literal_set", %"class.sat::literal_set", %class.svector, i32, i32, i32, i32, i8, ptr, ptr, %class.statistics, i32, i32, i32, i32, i8, i32, i32, i32, i32, i32, i32, i32, double, i32, double, i8, i8, %class.svector, i8, %class.svector.41, i32, i32, i32, %class.svector, %class.svector, %class.svector.28, %class.svector.8, %class.approx_set_tpl, %class.svector, %class.svector, %class.vector.14, %class.svector, %class.svector.36, %class.u_map, %class.svector }
%"class.sat::solver_core" = type { ptr, ptr }
%"struct.sat::config" = type <{ i64, i32, i32, i32, i8, [3 x i8], i32, i32, double, i32, i8, [3 x i8], i32, i8, [3 x i8], i32, [4 x i8], double, double, i32, i32, double, double, i32, [4 x i8], %class.symbol, double, i32, i32, i8, [3 x i8], i32, i32, i8, [3 x i8], i32, i8, [3 x i8], i32, i8, [3 x i8], i32, i8, i8, [2 x i8], i32, i8, i8, i8, i8, i8, i8, i8, i8, i32, i8, i8, i8, i8, i32, double, i32, [4 x i8], double, double, double, double, i32, i8, i8, [2 x i8], double, i8, i8, [2 x i8], i32, double, i32, i32, i32, i32, i32, i32, i32, i32, i8, i8, i8, i8, i32, i32, i8, i8, i8, i8, i8, i8, i8, [5 x i8], %class.symbol, i8, i8, i8, i8, i8, i8, [2 x i8], i32, i32, i32, i8, [3 x i8], double, double, double, double, double, i8, [7 x i8] }>
%class.symbol = type { ptr }
%"struct.sat::stats" = type { i32, i32, i32, i32, i32, i32, i32, i32, i32, i32, i32, i32, i32, i32, i32, i32, i32, i32, i32, i32, i32 }
%class.scoped_ptr = type { ptr }
%class.scoped_ptr.2 = type { ptr }
%"class.sat::drat" = type { ptr, %class.svector.3, ptr, %"class.sat::clause_allocator", ptr, ptr, %class.svector.10, %class.svector.12, %class.vector.14, %class.svector.15, i8, i8, i8, i8, i8, %"struct.sat::drat::stats" }
%class.svector.3 = type { %class.vector.4 }
%class.vector.4 = type { ptr }
%"class.sat::clause_allocator" = type { %class.sat_allocator, %class.id_gen }
%class.sat_allocator = type { ptr, i64, %class.ptr_vector, ptr, [65 x %class.ptr_vector.6] }
%class.ptr_vector = type { %class.vector.5 }
%class.vector.5 = type { ptr }
%class.ptr_vector.6 = type { %class.vector.7 }
%class.vector.7 = type { ptr }
%class.id_gen = type { i32, %class.svector.8 }
%class.svector.10 = type { %class.vector.11 }
%class.vector.11 = type { ptr }
%class.svector.12 = type { %class.vector.13 }
%class.vector.13 = type { ptr }
%"struct.sat::drat::stats" = type { i32, i32, i32, i32 }
%"class.sat::cleaner" = type { ptr, i32, i32, i32, i32 }
%"class.sat::model_converter" = type { %class.vector.17, i32, %class.svector.18, ptr, %class.svector.20 }
%class.vector.17 = type { ptr }
%class.svector.20 = type { %class.vector.21 }
%class.vector.21 = type { ptr }
%"class.sat::simplifier" = type { ptr, i32, %"class.sat::use_list", %"class.sat::ext_use_list", %"class.sat::clause_set", %class.svector.26, i32, %class.tracked_uint_set, i8, %"class.sat::tmp_clause", %class.svector.28, i32, i32, i8, i8, i8, i8, i32, i8, i8, i32, i8, i32, i8, i8, i32, i32, i32, i32, i32, i32, i32, i32, i32, i32, i8, i32, i8, i8, i32, i32, i32, i32, i32, i32, i32, i32, i32, i32, i32, i8, i32, %class.ptr_vector.24, %class.svector, %class.svector.30, %class.svector.30, %class.svector }
%"class.sat::use_list" = type { %class.vector.22 }
%class.vector.22 = type { ptr }
%"class.sat::ext_use_list" = type { %class.vector.23 }
%class.vector.23 = type { ptr }
%"class.sat::clause_set" = type { %class.svector.8, %class.ptr_vector.24 }
%class.svector.26 = type { %class.vector.27 }
%class.vector.27 = type { ptr }
%class.tracked_uint_set = type { %class.svector.28, %class.svector.8 }
%"class.sat::tmp_clause" = type { ptr }
%"class.sat::scc" = type { ptr, i8, i8, i32, i32, %"class.sat::big" }
%"class.sat::big" = type { ptr, i32, %class.vector.32, %class.svector.18, %class.svector.33, %class.svector.33, %class.svector, %class.svector, i8, i8, %class.vector.32 }
%class.svector.33 = type { %class.vector.34 }
%class.vector.34 = type { ptr }
%class.vector.32 = type { ptr }
%"class.sat::probing" = type { ptr, i32, %"class.sat::literal_set", %class.svector, i32, i8, i32, i8, i8, i64, i32, %class.vector.35, %class.svector.36, %"class.sat::big" }
%class.vector.35 = type { ptr }
%"class.sat::mus" = type <{ ptr, %class.svector, %class.svector, i8, [7 x i8], %class.svector.15, i32, [4 x i8] }>
%"class.sat::justification" = type <{ i32, [4 x i8], i64, i32, [4 x i8] }>
%class.ptr_vector.24 = type { %class.vector.25 }
%class.vector.25 = type { ptr }
%class.vector.38 = type { ptr }
%class.svector.15 = type { %class.vector.16 }
%class.vector.16 = type { ptr }
%class.svector.39 = type { %class.vector.40 }
%class.vector.40 = type { ptr }
%class.svector.18 = type { %class.vector.19 }
%class.vector.19 = type { ptr }
%"struct.sat::backoff" = type { i32, i32, i32, i32, i32 }
%class.var_queue = type { %class.heap }
%class.heap = type { %"struct.var_queue<svector<unsigned int>>::lt", %class.svector.33, %class.svector.33 }
%"struct.var_queue<svector<unsigned int>>::lt" = type { ptr }
%class.ema = type { double, double, double, i32, i32 }
%class.svector.30 = type { %class.vector.31 }
%class.vector.31 = type { ptr }
%"class.std::__cxx11::basic_string" = type { %"struct.std::__cxx11::basic_string<char>::_Alloc_hider", i64, %union.anon }
%"struct.std::__cxx11::basic_string<char>::_Alloc_hider" = type { ptr }
%union.anon = type { i64, [8 x i8] }
%class.visit_helper = type { %class.svector.8, i32, i32 }
%class.svector.43 = type { %class.vector.44 }
%class.vector.44 = type { ptr }
%class.scoped_limit_trail = type { %class.svector.8, i32, i32 }
%class.stopwatch = type <{ %"class.std::chrono::time_point", %"class.std::chrono::duration", i8, [7 x i8] }>
%"class.std::chrono::time_point" = type { %"class.std::chrono::duration" }
%"class.std::chrono::duration" = type { i64 }
%"struct.sat::no_drat_params" = type { %class.params_ref }
%class.scoped_ptr.45 = type { ptr }
%"class.sat::literal_set" = type { %class.tracked_uint_set }
%class.statistics = type { %class.svector.46, %class.svector.48 }
%class.svector.46 = type { %class.vector.47 }
%class.vector.47 = type { ptr }
%class.svector.48 = type { %class.vector.49 }
%class.vector.49 = type { ptr }
%class.svector.41 = type { %class.vector.42 }
%class.vector.42 = type { ptr }
%class.svector.28 = type { %class.vector.29 }
%class.vector.29 = type { ptr }
%class.svector.8 = type { %class.vector.9 }
%class.vector.9 = type { ptr }
%class.approx_set_tpl = type { i32 }
%class.vector.14 = type { ptr }
%class.svector.36 = type { %class.vector.37 }
%class.vector.37 = type { ptr }
%class.u_map = type { %class.map }
%class.map = type { %class.table2map }
%class.table2map = type { %class.core_hashtable }
%class.core_hashtable = type <{ ptr, i32, i32, i32, [4 x i8] }>
%"class.sat::clause" = type { i32, i32, i32, %class.approx_set_tpl, i32, [0 x %"class.sat::literal"] }

@.str.5 = private unnamed_addr constant [112 x i8] c"generated/home/dtcxzyw/WorkSpace/Projects/compilers/llvm-opt-benchmark/bench/z3/z3/src/sat/sat_asymm_branch.cpp\00", align 1
@.str.7 = private unnamed_addr constant [29 x i8] c"UNEXPECTED CODE WAS REACHED.\00", align 1

; Function Attrs: mustprogress nounwind uwtable
define linkonce_odr hidden noundef nonnull align 4 dereferenceable(4) ptr @_ZNK6vectorI5lboolLb0EjEixEj(ptr noundef nonnull align 8 dereferenceable(8) %0, i32 noundef %1) #5 comdat align 2 {
  %3 = alloca ptr, align 8
  %4 = alloca i32, align 4
  store ptr %0, ptr %3, align 8, !tbaa !380
  store i32 %1, ptr %4, align 4, !tbaa !30
  %5 = load ptr, ptr %3, align 8
  %6 = getelementptr inbounds nuw %class.vector.16, ptr %5, i32 0, i32 0
  %7 = load ptr, ptr %6, align 8, !tbaa !382
  %8 = load i32, ptr %4, align 4, !tbaa !30
  %9 = zext i32 %8 to i64
  %10 = getelementptr inbounds nuw i32, ptr %7, i64 %9
  ret ptr %10
}

; Function Attrs: mustprogress nounwind uwtable
define linkonce_odr hidden noundef i32 @_ZNK3sat7literal5indexEv(ptr noundef nonnull align 4 dereferenceable(4) %0) #5 comdat align 2 {
  %2 = alloca ptr, align 8
  store ptr %0, ptr %2, align 8, !tbaa !252
  %3 = load ptr, ptr %2, align 8
  %4 = getelementptr inbounds nuw %"class.sat::literal", ptr %3, i32 0, i32 0
  %5 = load i32, ptr %4, align 4, !tbaa !256
  ret i32 %5
}

; Function Attrs: inlinehint mustprogress nounwind uwtable
define linkonce_odr hidden void @_ZSt4swapIN3sat7literalEENSt9enable_ifIXsr6__and_ISt6__not_ISt15__is_tuple_likeIT_EESt21is_move_constructibleIS5_ESt18is_move_assignableIS5_EEE5valueEvE4typeERS5_SE_(ptr noundef nonnull align 4 dereferenceable(4) %0, ptr noundef nonnull align 4 dereferenceable(4) %1) #10 comdat {
  %3 = alloca ptr, align 8
  %4 = alloca ptr, align 8
  %5 = alloca %"class.sat::literal", align 4
  store ptr %0, ptr %3, align 8, !tbaa !252
  store ptr %1, ptr %4, align 8, !tbaa !252
  call void @llvm.lifetime.start.p0(i64 4, ptr %5) #3
  %6 = load ptr, ptr %3, align 8, !tbaa !252
  call void @llvm.memcpy.p0.p0.i64(ptr align 4 %5, ptr align 4 %6, i64 4, i1 false), !tbaa.struct !214
  %7 = load ptr, ptr %4, align 8, !tbaa !252
  %8 = load ptr, ptr %3, align 8, !tbaa !252
  call void @llvm.memcpy.p0.p0.i64(ptr align 4 %8, ptr align 4 %7, i64 4, i1 false), !tbaa.struct !214
  %9 = load ptr, ptr %4, align 8, !tbaa !252
  call void @llvm.memcpy.p0.p0.i64(ptr align 4 %9, ptr align 4 %5, i64 4, i1 false), !tbaa.struct !214
  call void @llvm.lifetime.end.p0(i64 4, ptr %5) #3
  ret void
}

; Function Attrs: mustprogress uwtable
define linkonce_odr hidden noundef i32 @_ZNK3sat6solver5valueENS_7literalE(ptr noundef nonnull align 8 dereferenceable(4264) %0, i32 %1) #4 comdat align 2 {
  %3 = alloca %"class.sat::literal", align 4
  %4 = alloca ptr, align 8
  %5 = getelementptr inbounds nuw %"class.sat::literal", ptr %3, i32 0, i32 0
  store i32 %1, ptr %5, align 4
  store ptr %0, ptr %4, align 8, !tbaa !8
  %6 = load ptr, ptr %4, align 8
  %7 = getelementptr inbounds nuw %"class.sat::solver", ptr %6, i32 0, i32 36
  %8 = call noundef i32 @_ZNK3sat7literal5indexEv(ptr noundef nonnull align 4 dereferenceable(4) %3)
  %9 = call noundef nonnull align 4 dereferenceable(4) ptr @_ZNK6vectorI5lboolLb0EjEixEj(ptr noundef nonnull align 8 dereferenceable(8) %7, i32 noundef %8)
  %10 = load i32, ptr %9, align 4, !tbaa !263
  ret i32 %10
}

; Function Attrs: mustprogress nounwind uwtable
define linkonce_odr hidden noundef nonnull align 4 dereferenceable(4) ptr @_ZN3sat6clauseixEj(ptr noundef nonnull align 4 dereferenceable(20) %0, i32 noundef %1) #5 comdat align 2 {
  %3 = alloca ptr, align 8
  %4 = alloca i32, align 4
  store ptr %0, ptr %3, align 8, !tbaa !200
  store i32 %1, ptr %4, align 4, !tbaa !30
  %5 = load ptr, ptr %3, align 8
  %6 = getelementptr inbounds nuw %"class.sat::clause", ptr %5, i32 0, i32 5
  %7 = load i32, ptr %4, align 4, !tbaa !30
  %8 = zext i32 %7 to i64
  %9 = getelementptr inbounds nuw [0 x %"class.sat::literal"], ptr %6, i64 0, i64 %8
  ret ptr %9
}

; Function Attrs: mustprogress uwtable
define hidden noundef zeroext i1 @_ZN3sat12asymm_branch7cleanupERNS_13scoped_detachERNS_6clauseEjj(ptr noundef nonnull align 8 dereferenceable(128) %0, ptr noundef nonnull align 8 dereferenceable(17) %1, ptr noundef nonnull align 4 dereferenceable(20) %2, i32 noundef %3, i32 noundef %4) #4 align 2 {
  %6 = alloca ptr, align 8
  %7 = alloca ptr, align 8
  %8 = alloca ptr, align 8
  %9 = alloca i32, align 4
  %10 = alloca i32, align 4
  %11 = alloca i32, align 4
  %12 = alloca i32, align 4
  %13 = alloca %"class.sat::literal", align 4
  %14 = alloca %"class.sat::literal", align 4
  store ptr %0, ptr %6, align 8, !tbaa !3
  store ptr %1, ptr %7, align 8, !tbaa !237
  store ptr %2, ptr %8, align 8, !tbaa !200
  store i32 %3, ptr %9, align 4, !tbaa !30
  store i32 %4, ptr %10, align 4, !tbaa !30
  %15 = load ptr, ptr %6, align 8
  call void @llvm.lifetime.start.p0(i64 4, ptr %11) #3
  store i32 0, ptr %11, align 4, !tbaa !30
  call void @llvm.lifetime.start.p0(i64 4, ptr %12) #3
  store i32 0, ptr %12, align 4, !tbaa !30
  br label %16

16:                                               ; preds = %51, %5
  %17 = load i32, ptr %12, align 4, !tbaa !30
  %18 = load i32, ptr %10, align 4, !tbaa !30
  %19 = icmp ult i32 %17, %18
  br i1 %19, label %21, label %20

20:                                               ; preds = %16
  call void @llvm.lifetime.end.p0(i64 4, ptr %12) #3
  br label %54

21:                                               ; preds = %16
  %22 = load i32, ptr %9, align 4, !tbaa !30
  %23 = load i32, ptr %12, align 4, !tbaa !30
  %24 = icmp eq i32 %22, %23
  br i1 %24, label %25, label %26

25:                                               ; preds = %21
  br label %51

26:                                               ; preds = %21
  call void @llvm.lifetime.start.p0(i64 4, ptr %13) #3
  %27 = load ptr, ptr %8, align 8, !tbaa !200
  %28 = load i32, ptr %12, align 4, !tbaa !30
  %29 = call noundef nonnull align 4 dereferenceable(4) ptr @_ZN3sat6clauseixEj(ptr noundef nonnull align 4 dereferenceable(20) %27, i32 noundef %28)
  call void @llvm.memcpy.p0.p0.i64(ptr align 4 %13, ptr align 4 %29, i64 4, i1 false), !tbaa.struct !214
  %30 = getelementptr inbounds nuw %"class.sat::asymm_branch", ptr %15, i32 0, i32 0
  %31 = load ptr, ptr %30, align 8, !tbaa !51
  call void @llvm.memcpy.p0.p0.i64(ptr align 4 %14, ptr align 4 %13, i64 4, i1 false), !tbaa.struct !214
  %32 = getelementptr inbounds nuw %"class.sat::literal", ptr %14, i32 0, i32 0
  %33 = load i32, ptr %32, align 4
  %34 = call noundef i32 @_ZNK3sat6solver5valueENS_7literalE(ptr noundef nonnull align 8 dereferenceable(4264) %31, i32 %33)
  switch i32 %34, label %50 [
    i32 0, label %35
    i32 -1, label %50
    i32 1, label %49
  ]

35:                                               ; preds = %26
  %36 = load i32, ptr %12, align 4, !tbaa !30
  %37 = load i32, ptr %11, align 4, !tbaa !30
  %38 = icmp ne i32 %36, %37
  br i1 %38, label %39, label %46

39:                                               ; preds = %35
  %40 = load ptr, ptr %8, align 8, !tbaa !200
  %41 = load i32, ptr %12, align 4, !tbaa !30
  %42 = call noundef nonnull align 4 dereferenceable(4) ptr @_ZN3sat6clauseixEj(ptr noundef nonnull align 4 dereferenceable(20) %40, i32 noundef %41)
  %43 = load ptr, ptr %8, align 8, !tbaa !200
  %44 = load i32, ptr %11, align 4, !tbaa !30
  %45 = call noundef nonnull align 4 dereferenceable(4) ptr @_ZN3sat6clauseixEj(ptr noundef nonnull align 4 dereferenceable(20) %43, i32 noundef %44)
  call void @_ZSt4swapIN3sat7literalEENSt9enable_ifIXsr6__and_ISt6__not_ISt15__is_tuple_likeIT_EESt21is_move_constructibleIS5_ESt18is_move_assignableIS5_EEE5valueEvE4typeERS5_SE_(ptr noundef nonnull align 4 dereferenceable(4) %42, ptr noundef nonnull align 4 dereferenceable(4) %45) #3
  br label %46

46:                                               ; preds = %39, %35
  %47 = load i32, ptr %11, align 4, !tbaa !30
  %48 = add i32 %47, 1
  store i32 %48, ptr %11, align 4, !tbaa !30
  br label %50

49:                                               ; preds = %26
  call void @_Z26notify_assertion_violationPKciS0_(ptr noundef @.str.5, i32 noundef 385, ptr noundef @.str.7)
  call void @_Z18invoke_exit_actionj(i32 noundef 114)
  br label %50

50:                                               ; preds = %26, %49, %26, %46
  call void @llvm.lifetime.end.p0(i64 4, ptr %13) #3
  br label %51

51:                                               ; preds = %50, %25
  %52 = load i32, ptr %12, align 4, !tbaa !30
  %53 = add i32 %52, 1
  store i32 %53, ptr %12, align 4, !tbaa !30
  br label %16, !llvm.loop !246

54:                                               ; preds = %20
  %55 = load i32, ptr %11, align 4, !tbaa !30
  store i32 %55, ptr %10, align 4, !tbaa !30
  %56 = load ptr, ptr %7, align 8, !tbaa !237
  %57 = load ptr, ptr %8, align 8, !tbaa !200
  %58 = load i32, ptr %10, align 4, !tbaa !30
  %59 = call noundef zeroext i1 @_ZN3sat12asymm_branch9re_attachERNS_13scoped_detachERNS_6clauseEj(ptr noundef nonnull align 8 dereferenceable(128) %15, ptr noundef nonnull align 8 dereferenceable(17) %56, ptr noundef nonnull align 4 dereferenceable(20) %57, i32 noundef %58)
  call void @llvm.lifetime.end.p0(i64 4, ptr %11) #3
  ret i1 %59
}