; Function Attrs: mustprogress uwtable
define hidden noundef zeroext i1 @_ZN3sat12asymm_branch7cleanupERNS_13scoped_detachERNS_6clauseEjj(ptr noundef nonnull align 8 captures(none) dereferenceable(128) %0, ptr noundef nonnull align 8 captures(none) dereferenceable(17) %1, ptr noundef nonnull align 4 dereferenceable(20) %2, i32 noundef %3, i32 noundef %4) local_unnamed_addr #3 align 2 {
  %.not22 = icmp eq i32 %4, 0
  br i1 %.not22, label %._crit_edge, label %.lr.ph

.lr.ph:                                           ; preds = %5
  %6 = getelementptr inbounds nuw i8, ptr %2, i64 20
  %7 = zext i32 %3 to i64
  %wide.trip.count = zext i32 %4 to i64
  br label %9

._crit_edge:                                      ; preds = %27, %5
  %.0.lcssa = phi i32 [ 0, %5 ], [ %.1, %27 ]
  %8 = tail call noundef zeroext i1 @_ZN3sat12asymm_branch9re_attachERNS_13scoped_detachERNS_6clauseEj(ptr noundef nonnull align 8 dereferenceable(128) %0, ptr noundef nonnull align 8 dereferenceable(17) %1, ptr noundef nonnull align 4 dereferenceable(20) %2, i32 noundef %.0.lcssa)
  ret i1 %8

9:                                                ; preds = %.lr.ph, %27
  %indvars.iv = phi i64 [ 0, %.lr.ph ], [ %indvars.iv.next, %27 ]
  %.021 = phi i32 [ 0, %.lr.ph ], [ %.1, %27 ]
  %10 = icmp eq i64 %indvars.iv, %7
  br i1 %10, label %27, label %11

11:                                               ; preds = %9
  %12 = getelementptr inbounds nuw [0 x %"class.sat::literal"], ptr %6, i64 0, i64 %indvars.iv
  %.sroa.01.0.copyload = load i32, ptr %12, align 4, !tbaa !187
  %13 = load ptr, ptr %0, align 8, !tbaa !40
  %14 = getelementptr inbounds nuw i8, ptr %13, i64 3288
  %15 = load ptr, ptr %14, align 8, !tbaa !208
  %16 = zext i32 %.sroa.01.0.copyload to i64
  %17 = getelementptr inbounds nuw i32, ptr %15, i64 %16
  %18 = load i32, ptr %17, align 4, !tbaa !210
  switch i32 %18, label %27 [
    i32 0, label %19
    i32 1, label %26
  ]

19:                                               ; preds = %11
  %20 = zext i32 %.021 to i64
  %.not = icmp eq i64 %indvars.iv, %20
  br i1 %.not, label %24, label %21

21:                                               ; preds = %19
  %22 = getelementptr inbounds nuw [0 x %"class.sat::literal"], ptr %6, i64 0, i64 %20
  %23 = load i32, ptr %22, align 4, !tbaa !187
  store i32 %23, ptr %12, align 4, !tbaa !187
  store i32 %.sroa.01.0.copyload, ptr %22, align 4, !tbaa !187
  br label %24

24:                                               ; preds = %21, %19
  %25 = add i32 %.021, 1
  br label %27

26:                                               ; preds = %11
  tail call void @_Z26notify_assertion_violationPKciS0_(ptr noundef nonnull @.str.5, i32 noundef 385, ptr noundef nonnull @.str.7)
  tail call void @_Z18invoke_exit_actionj(i32 noundef 114)
  br label %27

27:                                               ; preds = %11, %24, %26, %9
  %.1 = phi i32 [ %.021, %9 ], [ %.021, %11 ], [ %.021, %26 ], [ %25, %24 ]
  %indvars.iv.next = add nuw nsw i64 %indvars.iv, 1
  %exitcond.not = icmp eq i64 %indvars.iv.next, %wide.trip.count
  br i1 %exitcond.not, label %._crit_edge, label %9, !llvm.loop !212
}